; Function Attrs: null_pointer_is_valid sspstrong uwtable
define internal noundef i32 @cmp_contains(ptr noundef readonly captures(none) %0, ptr noundef readonly captures(none) %1, ptr noundef writeonly captures(none) initializes((0, 1)) %2) #0 {
  %4 = alloca i64, align 8
  %5 = alloca i64, align 8
  call void @llvm.lifetime.start.p0(i64 8, ptr nonnull %4) #12
  call void @llvm.lifetime.start.p0(i64 8, ptr nonnull %5) #12
  %6 = getelementptr inbounds nuw i8, ptr %0, i64 8
  %7 = load ptr, ptr %6, align 8
  %8 = call ptr @g_bytes_get_data(ptr noundef %7, ptr noundef nonnull %4)
  %9 = getelementptr inbounds nuw i8, ptr %1, i64 8
  %10 = load ptr, ptr %9, align 8
  %11 = call ptr @g_bytes_get_data(ptr noundef %10, ptr noundef nonnull %5)
  %12 = load i64, ptr %4, align 8
  %13 = load i64, ptr %5, align 8
  %14 = call ptr @ws_memmem(ptr noundef %8, i64 noundef %12, ptr noundef %11, i64 noundef %13)
  %.not = icmp ne ptr %14, null
  %. = zext i1 %.not to i8
  store i8 %., ptr %2, align 1
  call void @llvm.lifetime.end.p0(i64 8, ptr nonnull %5) #12
  call void @llvm.lifetime.end.p0(i64 8, ptr nonnull %4) #12
  ret i32 0
}